target datalayout = "e-m:e-p270:32:32-p271:32:32-p272:64:64-i64:64-i128:128-f80:128-n8:16:32:64-S128"
target triple = "x86_64-pc-linux-gnu"

%"struct.google::protobuf::internal::SerialArena::Memory" = type { ptr, i64 }
%"class.google::protobuf::internal::LogMessage" = type { i32, ptr, i32, %"class.std::__cxx11::basic_string" }
%"class.std::__cxx11::basic_string" = type { %"struct.std::__cxx11::basic_string<char>::_Alloc_hider", i64, %union.anon }
%"struct.std::__cxx11::basic_string<char>::_Alloc_hider" = type { ptr }
%union.anon = type { i64, [8 x i8] }
%"class.google::protobuf::internal::LogFinisher" = type { i8 }
%"struct.google::protobuf::internal::AllocationPolicy" = type { i64, i64, ptr, ptr, ptr }

@.str = private unnamed_addr constant [138 x i8] c"generated/home/dtcxzyw/WorkSpace/Projects/compilers/llvm-opt-benchmark/bench/opencv/opencv/3rdparty/protobuf/src/google/protobuf/arena.cc\00", align 1
@.str.9 = private unnamed_addr constant [100 x i8] c"CHECK failed: (min_bytes) <= (std::numeric_limits<size_t>::max() - SerialArena::kBlockHeaderSize): \00", align 1

; Function Attrs: inlinehint mustprogress nounwind uwtable
define linkonce_odr noundef nonnull align 8 dereferenceable(8) ptr @_ZSt3maxImERKT_S2_S2_(ptr noundef nonnull align 8 dereferenceable(8) %0, ptr noundef nonnull align 8 dereferenceable(8) %1) #12 comdat {
  %3 = alloca ptr, align 8
  %4 = alloca ptr, align 8
  %5 = alloca ptr, align 8
  store ptr %0, ptr %4, align 8, !tbaa !90
  store ptr %1, ptr %5, align 8, !tbaa !90
  %6 = load ptr, ptr %4, align 8, !tbaa !90
  %7 = load i64, ptr %6, align 8, !tbaa !15
  %8 = load ptr, ptr %5, align 8, !tbaa !90
  %9 = load i64, ptr %8, align 8, !tbaa !15
  %10 = icmp ult i64 %7, %9
  br i1 %10, label %11, label %13

11:                                               ; preds = %2
  %12 = load ptr, ptr %5, align 8, !tbaa !90
  store ptr %12, ptr %3, align 8
  br label %15

13:                                               ; preds = %2
  %14 = load ptr, ptr %4, align 8, !tbaa !90
  store ptr %14, ptr %3, align 8
  br label %15

15:                                               ; preds = %13, %11
  %16 = load ptr, ptr %3, align 8
  ret ptr %16
}

; Function Attrs: mustprogress nounwind uwtable
define linkonce_odr hidden noundef i64 @_ZNSt14numeric_limitsImE3maxEv() #6 comdat align 2 {
  ret i64 -1
}

; Function Attrs: inlinehint mustprogress nounwind uwtable
define linkonce_odr noundef nonnull align 8 dereferenceable(8) ptr @_ZSt3minImERKT_S2_S2_(ptr noundef nonnull align 8 dereferenceable(8) %0, ptr noundef nonnull align 8 dereferenceable(8) %1) #12 comdat {
  %3 = alloca ptr, align 8
  %4 = alloca ptr, align 8
  %5 = alloca ptr, align 8
  store ptr %0, ptr %4, align 8, !tbaa !90
  store ptr %1, ptr %5, align 8, !tbaa !90
  %6 = load ptr, ptr %5, align 8, !tbaa !90
  %7 = load i64, ptr %6, align 8, !tbaa !15
  %8 = load ptr, ptr %4, align 8, !tbaa !90
  %9 = load i64, ptr %8, align 8, !tbaa !15
  %10 = icmp ult i64 %7, %9
  br i1 %10, label %11, label %13

11:                                               ; preds = %2
  %12 = load ptr, ptr %5, align 8, !tbaa !90
  store ptr %12, ptr %3, align 8
  br label %15

13:                                               ; preds = %2
  %14 = load ptr, ptr %4, align 8, !tbaa !90
  store ptr %14, ptr %3, align 8
  br label %15

15:                                               ; preds = %13, %11
  %16 = load ptr, ptr %3, align 8
  ret ptr %16
}

; Function Attrs: inlinehint mustprogress nounwind uwtable
define linkonce_odr hidden void @_ZN6google8protobuf8internal16AllocationPolicyC2Ev(ptr noundef nonnull align 8 dereferenceable(40) %0) unnamed_addr #12 comdat align 2 {
  %2 = alloca ptr, align 8
  store ptr %0, ptr %2, align 8, !tbaa !33
  %3 = load ptr, ptr %2, align 8
  %4 = getelementptr inbounds nuw %"struct.google::protobuf::internal::AllocationPolicy", ptr %3, i32 0, i32 0
  store i64 256, ptr %4, align 8, !tbaa !42
  %5 = getelementptr inbounds nuw %"struct.google::protobuf::internal::AllocationPolicy", ptr %3, i32 0, i32 1
  store i64 8192, ptr %5, align 8, !tbaa !40
  %6 = getelementptr inbounds nuw %"struct.google::protobuf::internal::AllocationPolicy", ptr %3, i32 0, i32 2
  store ptr null, ptr %6, align 8, !tbaa !43
  %7 = getelementptr inbounds nuw %"struct.google::protobuf::internal::AllocationPolicy", ptr %3, i32 0, i32 3
  store ptr null, ptr %7, align 8, !tbaa !74
  %8 = getelementptr inbounds nuw %"struct.google::protobuf::internal::AllocationPolicy", ptr %3, i32 0, i32 4
  store ptr null, ptr %8, align 8, !tbaa !72
  ret void
}

; Function Attrs: mustprogress uwtable
define internal { ptr, i64 } @_ZN6google8protobuf8internalL14AllocateMemoryEPKNS1_16AllocationPolicyEmm(ptr noundef %0, i64 noundef %1, i64 noundef %2) #4 personality ptr @__gxx_personality_v0 {
  %4 = alloca %"struct.google::protobuf::internal::SerialArena::Memory", align 8
  %5 = alloca ptr, align 8
  %6 = alloca i64, align 8
  %7 = alloca i64, align 8
  %8 = alloca %"struct.google::protobuf::internal::AllocationPolicy", align 8
  %9 = alloca i64, align 8
  %10 = alloca i64, align 8
  %11 = alloca i64, align 8
  %12 = alloca %"class.google::protobuf::internal::LogMessage", align 8
  %13 = alloca i1, align 1
  %14 = alloca i1, align 1
  %15 = alloca ptr, align 8
  %16 = alloca i32, align 4
  %17 = alloca %"class.google::protobuf::internal::LogFinisher", align 1
  %18 = alloca i64, align 8
  %19 = alloca ptr, align 8
  store ptr %0, ptr %5, align 8, !tbaa !33
  store i64 %1, ptr %6, align 8, !tbaa !15
  store i64 %2, ptr %7, align 8, !tbaa !15
  call void @llvm.lifetime.start.p0(i64 40, ptr %8) #3
  call void @_ZN6google8protobuf8internal16AllocationPolicyC2Ev(ptr noundef nonnull align 8 dereferenceable(40) %8) #3
  %20 = load ptr, ptr %5, align 8, !tbaa !33
  %21 = icmp ne ptr %20, null
  br i1 %21, label %22, label %24

22:                                               ; preds = %3
  %23 = load ptr, ptr %5, align 8, !tbaa !33
  call void @llvm.memcpy.p0.p0.i64(ptr align 8 %8, ptr align 8 %23, i64 40, i1 false), !tbaa.struct !37
  br label %24

24:                                               ; preds = %22, %3
  call void @llvm.lifetime.start.p0(i64 8, ptr %9) #3
  %25 = load i64, ptr %6, align 8, !tbaa !15
  %26 = icmp ne i64 %25, 0
  br i1 %26, label %27, label %34

27:                                               ; preds = %24
  call void @llvm.lifetime.start.p0(i64 8, ptr %10) #3
  %28 = getelementptr inbounds nuw %"struct.google::protobuf::internal::AllocationPolicy", ptr %8, i32 0, i32 1
  %29 = load i64, ptr %28, align 8, !tbaa !40
  store i64 %29, ptr %10, align 8, !tbaa !15
  call void @llvm.lifetime.start.p0(i64 8, ptr %11) #3
  %30 = load i64, ptr %6, align 8, !tbaa !15
  %31 = mul i64 2, %30
  store i64 %31, ptr %11, align 8, !tbaa !15
  %32 = call noundef nonnull align 8 dereferenceable(8) ptr @_ZSt3minImERKT_S2_S2_(ptr noundef nonnull align 8 dereferenceable(8) %11, ptr noundef nonnull align 8 dereferenceable(8) %10)
  %33 = load i64, ptr %32, align 8, !tbaa !15
  store i64 %33, ptr %9, align 8, !tbaa !15
  call void @llvm.lifetime.end.p0(i64 8, ptr %11) #3
  call void @llvm.lifetime.end.p0(i64 8, ptr %10) #3
  br label %37

34:                                               ; preds = %24
  %35 = getelementptr inbounds nuw %"struct.google::protobuf::internal::AllocationPolicy", ptr %8, i32 0, i32 0
  %36 = load i64, ptr %35, align 8, !tbaa !42
  store i64 %36, ptr %9, align 8, !tbaa !15
  br label %37

37:                                               ; preds = %34, %27
  %38 = load i64, ptr %7, align 8, !tbaa !15
  %39 = call noundef i64 @_ZNSt14numeric_limitsImE3maxEv() #3
  %40 = sub i64 %39, 24
  %41 = icmp ule i64 %38, %40
  store i1 false, ptr %13, align 1
  store i1 false, ptr %14, align 1
  call void @llvm.lifetime.start.p0(i64 1, ptr %17) #3
  br i1 %41, label %42, label %43

42:                                               ; preds = %37
  br label %47

43:                                               ; preds = %37
  call void @llvm.lifetime.start.p0(i64 56, ptr %12) #3
  store i1 true, ptr %13, align 1
  call void @_ZN6google8protobuf8internal10LogMessageC1ENS0_8LogLevelEPKci(ptr noundef nonnull align 8 dereferenceable(56) %12, i32 noundef 3, ptr noundef @.str, i32 noundef 67)
  store i1 true, ptr %14, align 1
  %44 = invoke noundef nonnull align 8 dereferenceable(56) ptr @_ZN6google8protobuf8internal10LogMessagelsEPKc(ptr noundef nonnull align 8 dereferenceable(56) %12, ptr noundef @.str.9)
          to label %45 unwind label %64

45:                                               ; preds = %43
  invoke void @_ZN6google8protobuf8internal11LogFinisheraSERNS1_10LogMessageE(ptr noundef nonnull align 1 dereferenceable(1) %17, ptr noundef nonnull align 8 dereferenceable(56) %44)
          to label %46 unwind label %68

46:                                               ; preds = %45
  br label %47

47:                                               ; preds = %46, %42
  call void @llvm.lifetime.end.p0(i64 1, ptr %17) #3
  %48 = load i1, ptr %14, align 1
  br i1 %48, label %49, label %50

49:                                               ; preds = %47
  call void @_ZN6google8protobuf8internal10LogMessageD1Ev(ptr noundef nonnull align 8 dereferenceable(56) %12) #3
  br label %50

50:                                               ; preds = %49, %47
  %51 = load i1, ptr %13, align 1
  br i1 %51, label %52, label %53

52:                                               ; preds = %50
  call void @llvm.lifetime.end.p0(i64 56, ptr %12) #3
  br label %53

53:                                               ; preds = %52, %50
  call void @llvm.lifetime.start.p0(i64 8, ptr %18) #3
  %54 = load i64, ptr %7, align 8, !tbaa !15
  %55 = add i64 24, %54
  store i64 %55, ptr %18, align 8, !tbaa !15
  %56 = call noundef nonnull align 8 dereferenceable(8) ptr @_ZSt3maxImERKT_S2_S2_(ptr noundef nonnull align 8 dereferenceable(8) %9, ptr noundef nonnull align 8 dereferenceable(8) %18)
  %57 = load i64, ptr %56, align 8, !tbaa !15
  store i64 %57, ptr %9, align 8, !tbaa !15
  call void @llvm.lifetime.end.p0(i64 8, ptr %18) #3
  call void @llvm.lifetime.start.p0(i64 8, ptr %19) #3
  %58 = getelementptr inbounds nuw %"struct.google::protobuf::internal::AllocationPolicy", ptr %8, i32 0, i32 2
  %59 = load ptr, ptr %58, align 8, !tbaa !43
  %60 = icmp eq ptr %59, null
  br i1 %60, label %61, label %79

61:                                               ; preds = %53
  %62 = load i64, ptr %9, align 8, !tbaa !15
  %63 = call noalias noundef nonnull ptr @_Znwm(i64 noundef %62) #19
  store ptr %63, ptr %19, align 8, !tbaa !3
  br label %84

64:                                               ; preds = %43
  %65 = landingpad { ptr, i32 }
          cleanup
  %66 = extractvalue { ptr, i32 } %65, 0
  store ptr %66, ptr %15, align 8
  %67 = extractvalue { ptr, i32 } %65, 1
  store i32 %67, ptr %16, align 4
  br label %72

68:                                               ; preds = %45
  %69 = landingpad { ptr, i32 }
          cleanup
  %70 = extractvalue { ptr, i32 } %69, 0
  store ptr %70, ptr %15, align 8
  %71 = extractvalue { ptr, i32 } %69, 1
  store i32 %71, ptr %16, align 4
  call void @llvm.lifetime.end.p0(i64 1, ptr %17) #3
  br label %72

72:                                               ; preds = %68, %64
  %73 = load i1, ptr %14, align 1
  br i1 %73, label %74, label %75

74:                                               ; preds = %72
  call void @_ZN6google8protobuf8internal10LogMessageD1Ev(ptr noundef nonnull align 8 dereferenceable(56) %12) #3
  br label %75

75:                                               ; preds = %74, %72
  %76 = load i1, ptr %13, align 1
  br i1 %76, label %77, label %78

77:                                               ; preds = %75
  call void @llvm.lifetime.end.p0(i64 56, ptr %12) #3
  br label %78

78:                                               ; preds = %77, %75
  call void @llvm.lifetime.end.p0(i64 8, ptr %9) #3
  call void @llvm.lifetime.end.p0(i64 40, ptr %8) #3
  br label %90

79:                                               ; preds = %53
  %80 = getelementptr inbounds nuw %"struct.google::protobuf::internal::AllocationPolicy", ptr %8, i32 0, i32 2
  %81 = load ptr, ptr %80, align 8, !tbaa !43
  %82 = load i64, ptr %9, align 8, !tbaa !15
  %83 = call noundef ptr %81(i64 noundef %82)
  store ptr %83, ptr %19, align 8, !tbaa !3
  br label %84

84:                                               ; preds = %79, %61
  %85 = getelementptr inbounds nuw %"struct.google::protobuf::internal::SerialArena::Memory", ptr %4, i32 0, i32 0
  %86 = load ptr, ptr %19, align 8, !tbaa !3
  store ptr %86, ptr %85, align 8, !tbaa !12
  %87 = getelementptr inbounds nuw %"struct.google::protobuf::internal::SerialArena::Memory", ptr %4, i32 0, i32 1
  %88 = load i64, ptr %9, align 8, !tbaa !15
  store i64 %88, ptr %87, align 8, !tbaa !7
  call void @llvm.lifetime.end.p0(i64 8, ptr %19) #3
  call void @llvm.lifetime.end.p0(i64 8, ptr %9) #3
  call void @llvm.lifetime.end.p0(i64 40, ptr %8) #3
  %89 = load { ptr, i64 }, ptr %4, align 8
  ret { ptr, i64 } %89

90:                                               ; preds = %78
  %91 = load ptr, ptr %15, align 8
  %92 = load i32, ptr %16, align 4
  %93 = insertvalue { ptr, i32 } poison, ptr %91, 0
  %94 = insertvalue { ptr, i32 } %93, i32 %92, 1
  resume { ptr, i32 } %94
}