; Function Attrs: mustprogress uwtable
define internal fastcc { ptr, i64 } @_ZN6google8protobuf8internalL14AllocateMemoryEPKNS1_16AllocationPolicyEmm(ptr noundef readonly %0, i64 noundef %1, i64 noundef %2) unnamed_addr #6 personality ptr @__gxx_personality_v0 {
  %4 = alloca %"class.google::protobuf::internal::LogMessage", align 8
  %5 = alloca %"class.google::protobuf::internal::LogFinisher", align 1
  %.not = icmp eq ptr %0, null
  br i1 %.not, label %7, label %6

6:                                                ; preds = %3
  %.sroa.0.0.copyload = load i64, ptr %0, align 8, !tbaa !24
  %.sroa.6.0..sroa_idx = getelementptr inbounds nuw i8, ptr %0, i64 8
  %.sroa.6.0.copyload = load i64, ptr %.sroa.6.0..sroa_idx, align 8, !tbaa !24
  %.sroa.8.0..sroa_idx = getelementptr inbounds nuw i8, ptr %0, i64 16
  %.sroa.8.0.copyload = load ptr, ptr %.sroa.8.0..sroa_idx, align 8, !tbaa !25
  br label %7

7:                                                ; preds = %6, %3
  %.sroa.0.0 = phi i64 [ 256, %3 ], [ %.sroa.0.0.copyload, %6 ]
  %.sroa.6.0 = phi i64 [ 8192, %3 ], [ %.sroa.6.0.copyload, %6 ]
  %.sroa.8.0 = phi ptr [ null, %3 ], [ %.sroa.8.0.copyload, %6 ]
  %.not19 = icmp eq i64 %1, 0
  %8 = shl i64 %1, 1
  %.sroa.speculated27 = tail call i64 @llvm.umin.i64(i64 %.sroa.6.0, i64 %8)
  %.037 = select i1 %.not19, i64 %.sroa.0.0, i64 %.sroa.speculated27
  %.not20 = icmp ugt i64 %2, -25
  call void @llvm.lifetime.start.p0(i64 1, ptr nonnull %5) #21
  br i1 %.not20, label %9, label %12

9:                                                ; preds = %7
  call void @llvm.lifetime.start.p0(i64 56, ptr nonnull %4) #21
  call void @_ZN6google8protobuf8internal10LogMessageC1ENS0_8LogLevelEPKci(ptr noundef nonnull align 8 dereferenceable(56) %4, i32 noundef 3, ptr noundef nonnull @.str, i32 noundef 67)
  %10 = invoke noundef nonnull align 8 dereferenceable(56) ptr @_ZN6google8protobuf8internal10LogMessagelsEPKc(ptr noundef nonnull align 8 dereferenceable(56) %4, ptr noundef nonnull @.str.9)
          to label %11 unwind label %18

11:                                               ; preds = %9
  invoke void @_ZN6google8protobuf8internal11LogFinisheraSERNS1_10LogMessageE(ptr noundef nonnull align 1 dereferenceable(1) %5, ptr noundef nonnull align 8 dereferenceable(56) %10)
          to label %13 unwind label %20

12:                                               ; preds = %7
  call void @llvm.lifetime.end.p0(i64 1, ptr nonnull %5) #21
  br label %.critedge23

13:                                               ; preds = %11
  call void @llvm.lifetime.end.p0(i64 1, ptr nonnull %5) #21
  call void @_ZN6google8protobuf8internal10LogMessageD1Ev(ptr noundef nonnull align 8 dereferenceable(56) %4) #21
  call void @llvm.lifetime.end.p0(i64 56, ptr nonnull %4) #21
  br label %.critedge23

.critedge23:                                      ; preds = %12, %13
  %14 = add i64 %2, 24
  %.sroa.speculated = call i64 @llvm.umax.i64(i64 %.037, i64 %14)
  %15 = icmp eq ptr %.sroa.8.0, null
  br i1 %15, label %16, label %23

16:                                               ; preds = %.critedge23
  %17 = call noalias noundef nonnull ptr @_Znwm(i64 noundef %.sroa.speculated) #22
  br label %25

18:                                               ; preds = %9
  %19 = landingpad { ptr, i32 }
          cleanup
  br label %22

20:                                               ; preds = %11
  %21 = landingpad { ptr, i32 }
          cleanup
  call void @llvm.lifetime.end.p0(i64 1, ptr nonnull %5) #21
  br label %22

22:                                               ; preds = %18, %20
  %.pn = phi { ptr, i32 } [ %21, %20 ], [ %19, %18 ]
  call void @_ZN6google8protobuf8internal10LogMessageD1Ev(ptr noundef nonnull align 8 dereferenceable(56) %4) #21
  call void @llvm.lifetime.end.p0(i64 56, ptr nonnull %4) #21
  resume { ptr, i32 } %.pn

23:                                               ; preds = %.critedge23
  %24 = call noundef ptr %.sroa.8.0(i64 noundef %.sroa.speculated)
  br label %25

25:                                               ; preds = %23, %16
  %.0 = phi ptr [ %17, %16 ], [ %24, %23 ]
  %.fca.0.insert = insertvalue { ptr, i64 } poison, ptr %.0, 0
  %.fca.1.insert = insertvalue { ptr, i64 } %.fca.0.insert, i64 %.sroa.speculated, 1
  ret { ptr, i64 } %.fca.1.insert
}